target datalayout = "e-m:e-p270:32:32-p271:32:32-p272:64:64-i64:64-i128:128-f80:128-n8:16:32:64-S128"
target triple = "x86_64-pc-linux-gnu"

%struct.PyType_Slot = type { i32, ptr }
%struct.PyType_Spec = type { ptr, i32, i32, i32, ptr }

@.str.11 = private unnamed_addr constant [14 x i8] c"_testcapi.Sub\00", align 1
@.str.13 = private unnamed_addr constant [5 x i8] c"Oiil\00", align 1
@__const.subclass_var_heaptype.slots = private unnamed_addr constant [2 x { i32, [4 x i8], ptr }] [{ i32, [4 x i8], ptr } { i32 64, [4 x i8] zeroinitializer, ptr @var_heaptype_methods }, { i32, [4 x i8], ptr } zeroinitializer], align 16

; Function Attrs: nounwind uwtable
define internal ptr @subclass_var_heaptype(ptr noundef %0, ptr noundef %1) #0 {
  %3 = alloca ptr, align 8
  %4 = alloca ptr, align 8
  %5 = alloca ptr, align 8
  %6 = alloca ptr, align 8
  %7 = alloca i32, align 4
  %8 = alloca i32, align 4
  %9 = alloca i64, align 8
  %10 = alloca i32, align 4
  %11 = alloca [2 x %struct.PyType_Slot], align 16
  %12 = alloca %struct.PyType_Spec, align 8
  store ptr %0, ptr %3, align 8, !tbaa !3
  store ptr %1, ptr %4, align 8, !tbaa !3
  call void @llvm.lifetime.start.p0(i64 8, ptr %5) #7
  store ptr null, ptr %5, align 8, !tbaa !3
  call void @llvm.lifetime.start.p0(i64 8, ptr %6) #7
  call void @llvm.lifetime.start.p0(i64 4, ptr %7) #7
  call void @llvm.lifetime.start.p0(i64 4, ptr %8) #7
  call void @llvm.lifetime.start.p0(i64 8, ptr %9) #7
  call void @llvm.lifetime.start.p0(i64 4, ptr %10) #7
  %13 = load ptr, ptr %4, align 8, !tbaa !3
  %14 = call i32 (ptr, ptr, ...) @PyArg_ParseTuple(ptr noundef %13, ptr noundef @.str.13, ptr noundef %6, ptr noundef %7, ptr noundef %8, ptr noundef %9)
  store i32 %14, ptr %10, align 4, !tbaa !8
  %15 = load i32, ptr %10, align 4, !tbaa !8
  %16 = icmp ne i32 %15, 0
  br i1 %16, label %18, label %17

17:                                               ; preds = %2
  br label %31

18:                                               ; preds = %2
  call void @llvm.memcpy.p0.p0.i64(ptr align 16 %11, ptr align 16 @__const.subclass_var_heaptype.slots, i64 32, i1 false)
  %19 = getelementptr inbounds nuw %struct.PyType_Spec, ptr %12, i32 0, i32 0
  store ptr @.str.11, ptr %19, align 8, !tbaa !10
  %20 = getelementptr inbounds nuw %struct.PyType_Spec, ptr %12, i32 0, i32 1
  %21 = load i32, ptr %7, align 4, !tbaa !8
  store i32 %21, ptr %20, align 8, !tbaa !13
  %22 = getelementptr inbounds nuw %struct.PyType_Spec, ptr %12, i32 0, i32 2
  %23 = load i32, ptr %8, align 4, !tbaa !8
  store i32 %23, ptr %22, align 4, !tbaa !14
  %24 = getelementptr inbounds nuw %struct.PyType_Spec, ptr %12, i32 0, i32 3
  store i32 8388608, ptr %24, align 8, !tbaa !15
  %25 = getelementptr i8, ptr %12, i64 20
  call void @llvm.memset.p0.i64(ptr align 4 %25, i8 0, i64 4, i1 false)
  %26 = getelementptr inbounds nuw %struct.PyType_Spec, ptr %12, i32 0, i32 4
  %27 = getelementptr inbounds [2 x %struct.PyType_Slot], ptr %11, i64 0, i64 0
  store ptr %27, ptr %26, align 8, !tbaa !16
  %28 = load ptr, ptr %3, align 8, !tbaa !3
  %29 = load ptr, ptr %6, align 8, !tbaa !3
  %30 = call ptr @PyType_FromMetaclass(ptr noundef null, ptr noundef %28, ptr noundef %12, ptr noundef %29)
  store ptr %30, ptr %5, align 8, !tbaa !3
  br label %31

31:                                               ; preds = %18, %17
  %32 = load ptr, ptr %5, align 8, !tbaa !3
  call void @llvm.lifetime.end.p0(i64 4, ptr %10) #7
  call void @llvm.lifetime.end.p0(i64 8, ptr %9) #7
  call void @llvm.lifetime.end.p0(i64 4, ptr %8) #7
  call void @llvm.lifetime.end.p0(i64 4, ptr %7) #7
  call void @llvm.lifetime.end.p0(i64 8, ptr %6) #7
  call void @llvm.lifetime.end.p0(i64 8, ptr %5) #7
  ret ptr %32
}