; Function Attrs: nounwind uwtable
define internal ptr @subclass_var_heaptype(ptr noundef %0, ptr noundef %1) #0 {
  %3 = alloca ptr, align 8
  %4 = alloca i32, align 4
  %5 = alloca i32, align 4
  %6 = alloca i64, align 8
  %7 = alloca [2 x %struct.PyType_Slot], align 16
  %8 = alloca %struct.PyType_Spec, align 8
  call void @llvm.lifetime.start.p0(i64 8, ptr nonnull %3) #8
  call void @llvm.lifetime.start.p0(i64 4, ptr nonnull %4) #8
  call void @llvm.lifetime.start.p0(i64 4, ptr nonnull %5) #8
  call void @llvm.lifetime.start.p0(i64 8, ptr nonnull %6) #8
  %9 = call i32 (ptr, ptr, ...) @PyArg_ParseTuple(ptr noundef %1, ptr noundef nonnull @.str.13, ptr noundef nonnull %3, ptr noundef nonnull %4, ptr noundef nonnull %5, ptr noundef nonnull %6) #8
  %.not = icmp eq i32 %9, 0
  br i1 %.not, label %20, label %10

10:                                               ; preds = %2
  call void @llvm.memcpy.p0.p0.i64(ptr noundef nonnull align 16 dereferenceable(32) %7, ptr noundef nonnull align 16 dereferenceable(32) @__const.subclass_heaptype.slots, i64 32, i1 false)
  store ptr @.str.11, ptr %8, align 8, !tbaa !3
  %11 = getelementptr inbounds nuw i8, ptr %8, i64 8
  %12 = load i32, ptr %4, align 4, !tbaa !10
  store i32 %12, ptr %11, align 8, !tbaa !11
  %13 = getelementptr inbounds nuw i8, ptr %8, i64 12
  %14 = load i32, ptr %5, align 4, !tbaa !10
  store i32 %14, ptr %13, align 4, !tbaa !12
  %15 = getelementptr inbounds nuw i8, ptr %8, i64 16
  store i32 8388608, ptr %15, align 8, !tbaa !13
  %16 = getelementptr inbounds nuw i8, ptr %8, i64 20
  store i32 0, ptr %16, align 4
  %17 = getelementptr inbounds nuw i8, ptr %8, i64 24
  store ptr %7, ptr %17, align 8, !tbaa !14
  %18 = load ptr, ptr %3, align 8, !tbaa !15
  %19 = call ptr @PyType_FromMetaclass(ptr noundef null, ptr noundef %0, ptr noundef nonnull %8, ptr noundef %18) #8
  br label %20

20:                                               ; preds = %2, %10
  %.0 = phi ptr [ %19, %10 ], [ null, %2 ]
  call void @llvm.lifetime.end.p0(i64 8, ptr nonnull %6) #8
  call void @llvm.lifetime.end.p0(i64 4, ptr nonnull %5) #8
  call void @llvm.lifetime.end.p0(i64 4, ptr nonnull %4) #8
  call void @llvm.lifetime.end.p0(i64 8, ptr nonnull %3) #8
  ret ptr %.0
}